V// source: plugin/touchui/js/touchui.bootstrap.js\u000a!function(){var E=new TouchUI;E.domLoading(),$(function(){E.domReady(),OCTOPRINT_VIEWMODELS.push([E.koStartup,E.TOUCHUI_REQUIRED_VIEWMODELS,E.TOUCHUI_ELEMENTS,E.TOUCHUI_REQUIRED_VIEWMODELS])})}();\u000a;\u000a
p0
.